ccopy_reg
_reconstructor
p0
(csklearn.ensemble.weight_boosting
AdaBoostClassifier
p1
c__builtin__
object
p2
Ntp3
Rp4
(dp5
S'base_estimator'
p6
NsS'algorithm'
p7
S'SAMME'
p8
sS'learning_rate'
p9
F1.0
sS'n_estimators'
p10
I5
sS'random_state'
p11
NsS'_sklearn_version'
p12
S'0.19.1'
p13
sS'estimator_params'
p14
(tsb.